target datalayout = "e-m:e-p270:32:32-p271:32:32-p272:64:64-i64:64-i128:128-f80:128-n8:16:32:64-S128"
target triple = "x86_64-pc-linux-gnu"

%struct.MPVEncContext = type { %struct.MpegEncContext, %struct.PutBitContext, i32, i32, ptr, i32, i32, i32, i32, i32, i32, i32, i32, ptr, ptr, %struct.FDCTDSPContext, %struct.MpegvideoEncDSPContext, %struct.PixblockDSPContext, %struct.MotionEstContext, i32, i32, ptr, ptr, ptr, ptr, ptr, ptr, [2 x [2 x [2 x ptr]]], [2 x ptr], [2 x [2 x ptr]], ptr, ptr, ptr, ptr, [3 x i64], i32, i32, i32, i32, i32, ptr, ptr, ptr, ptr, ptr, ptr, ptr, [12 x i32], ptr, ptr, ptr, ptr, ptr, ptr, ptr, ptr, [2 x i32], ptr, i32, i32, i32, i32, i32, i32, i32, i32, i32, i32, ptr, ptr, i32, i32, %struct.PutBitContext, %struct.PutBitContext, i32, i32, i32, i32, ptr, ptr, ptr, [2 x ptr], [2 x ptr], [2 x ptr], [2 x ptr], ptr, i32 }
%struct.MpegEncContext = type { ptr, i32, i32, i32, [12 x i32], i32, %struct.ScanTable, %struct.ScanTable, [64 x i8], [64 x i8], ptr, ptr, i32, i32, i32, i32, i32, i32, i32, i32, i32, i32, i32, i32, i32, i32, i32, i32, i32, i32, i32, i32, i64, i64, ptr, %struct.BufferPoolContext, i32, i32, %union.anon.0, i32, %struct.MPVWorkPicture, %struct.MPVWorkPicture, %struct.MPVWorkPicture, i32, [3 x i32], ptr, [3 x ptr], ptr, ptr, ptr, ptr, ptr, ptr, [3 x ptr], i32, ptr, ptr, ptr, ptr, %struct.ScratchpadContext, i32, i32, i32, i32, i32, i32, %struct.BlockDSPContext, %struct.H264ChromaContext, %struct.HpelDSPContext, %struct.IDCTDSPContext, %struct.QpelDSPContext, %struct.VideoDSPContext, %struct.H263DSPContext, ptr, [2 x [2 x ptr]], i32, i32, [2 x [4 x [2 x i32]]], [2 x [2 x i32]], [2 x [2 x [2 x i32]]], [2 x [64 x i16]], i32, i32, i32, i32, i32, [6 x i32], [6 x i32], [3 x ptr], ptr, [64 x i16], [64 x i16], [64 x i16], [64 x i16], i32, i32, %struct.GetBitContext, i32, i32, i32, i32, i32, i32, i32, i32, i32, i32, i32, i32, i32, i32, i32, i64, i64, i16, i16, i16, i16, i32, i32, i32, i32, i32, i32, i32, i32, i32, [3 x i32], i32, i32, i32, i32, i32, i32, %struct.GetBitContext, i32, [2 x [2 x i32]], i32, i32, i32, i32, i32, i32, i32, i32, i32, i32, i32, i32, i32, i32, [2 x i32], i32, i32, ptr, ptr, ptr, ptr, ptr, i32, i32, %struct.ERContext }
%struct.ScanTable = type { ptr, [64 x i8], [64 x i8] }
%struct.BufferPoolContext = type { ptr, ptr, ptr, ptr, ptr, i32, i32, i32 }
%union.anon.0 = type { [32 x ptr] }
%struct.MPVWorkPicture = type { [3 x ptr], [3 x i64], ptr, ptr, [2 x ptr], ptr, ptr, [2 x ptr], i32 }
%struct.ScratchpadContext = type { ptr, ptr, %union.anon.1, i32 }
%union.anon.1 = type { ptr }
%struct.BlockDSPContext = type { ptr, ptr, [2 x ptr] }
%struct.H264ChromaContext = type { [4 x ptr], [4 x ptr] }
%struct.HpelDSPContext = type { [4 x [4 x ptr]], [4 x [4 x ptr]], [4 x [4 x ptr]], [4 x ptr] }
%struct.IDCTDSPContext = type { ptr, ptr, ptr, ptr, ptr, ptr, [64 x i8], i32, i32 }
%struct.QpelDSPContext = type { [2 x [16 x ptr]], [2 x [16 x ptr]], [2 x [16 x ptr]] }
%struct.VideoDSPContext = type { ptr, ptr }
%struct.H263DSPContext = type { ptr, ptr }
%struct.GetBitContext = type { ptr, ptr, i32, i32, i32 }
%struct.ERContext = type { ptr, ptr, i32, ptr, i32, i32, i32, i64, i64, i32, i32, ptr, ptr, [3 x ptr], ptr, ptr, [2 x [4 x [2 x i32]]], %struct.ERPicture, %struct.ERPicture, %struct.ERPicture, [2 x ptr], [2 x ptr], i16, i16, i32, i32, ptr, ptr }
%struct.ERPicture = type { ptr, ptr, ptr, [2 x ptr], [2 x ptr], ptr, i32 }
%struct.FDCTDSPContext = type { ptr, ptr }
%struct.MpegvideoEncDSPContext = type { ptr, ptr, ptr, ptr, [4 x ptr], ptr }
%struct.PixblockDSPContext = type { ptr, ptr, ptr, ptr }
%struct.MotionEstContext = type { ptr, i32, i32, [4 x [2 x i32]], [4 x [2 x i32]], ptr, ptr, i32, i32, i32, i32, i32, i32, i32, i32, i32, i32, i32, i32, i32, i32, i32, i32, [4 x [4 x ptr]], [4 x [4 x ptr]], i32, i32, i64, i64, i32, [6 x ptr], [6 x ptr], [6 x ptr], [6 x ptr], [2 x [4 x ptr]], ptr, ptr, ptr, ptr, ptr, ptr, ptr, ptr, [64 x i32], [64 x i32] }
%struct.PutBitContext = type { i32, i32, ptr, ptr, ptr }

; Function Attrs: nounwind uwtable
define internal void @denoise_dct_c(ptr noundef %0, ptr noundef %1) #1 {
  %3 = alloca ptr, align 8
  %4 = alloca ptr, align 8
  %5 = alloca i32, align 4
  %6 = alloca i32, align 4
  %7 = alloca i32, align 4
  store ptr %0, ptr %3, align 8, !tbaa !4
  store ptr %1, ptr %4, align 8, !tbaa !11
  call void @llvm.lifetime.start.p0(i64 4, ptr %5) #14
  %8 = load ptr, ptr %3, align 8, !tbaa !4
  %9 = getelementptr inbounds nuw %struct.MPVEncContext, ptr %8, i32 0, i32 0
  %10 = getelementptr inbounds nuw %struct.MpegEncContext, ptr %9, i32 0, i32 85
  %11 = load i32, ptr %10, align 8, !tbaa !84
  store i32 %11, ptr %5, align 4, !tbaa !13
  call void @llvm.lifetime.start.p0(i64 4, ptr %6) #14
  %12 = load ptr, ptr %3, align 8, !tbaa !4
  %13 = getelementptr inbounds nuw %struct.MPVEncContext, ptr %12, i32 0, i32 56
  %14 = load i32, ptr %5, align 4, !tbaa !13
  %15 = sext i32 %14 to i64
  %16 = getelementptr inbounds [2 x i32], ptr %13, i64 0, i64 %15
  %17 = load i32, ptr %16, align 4, !tbaa !13
  %18 = add nsw i32 %17, 1
  store i32 %18, ptr %16, align 4, !tbaa !13
  store i32 0, ptr %6, align 4, !tbaa !13
  br label %19

19:                                               ; preds = %102, %2
  %20 = load i32, ptr %6, align 4, !tbaa !13
  %21 = icmp slt i32 %20, 64
  br i1 %21, label %22, label %105

22:                                               ; preds = %19
  call void @llvm.lifetime.start.p0(i64 4, ptr %7) #14
  %23 = load ptr, ptr %4, align 8, !tbaa !11
  %24 = load i32, ptr %6, align 4, !tbaa !13
  %25 = sext i32 %24 to i64
  %26 = getelementptr inbounds i16, ptr %23, i64 %25
  %27 = load i16, ptr %26, align 2, !tbaa !54
  %28 = sext i16 %27 to i32
  store i32 %28, ptr %7, align 4, !tbaa !13
  %29 = load i32, ptr %7, align 4, !tbaa !13
  %30 = icmp ne i32 %29, 0
  br i1 %30, label %31, label %101

31:                                               ; preds = %22
  %32 = load i32, ptr %7, align 4, !tbaa !13
  %33 = icmp sgt i32 %32, 0
  br i1 %33, label %34, label %64

34:                                               ; preds = %31
  %35 = load i32, ptr %7, align 4, !tbaa !13
  %36 = load ptr, ptr %3, align 8, !tbaa !4
  %37 = getelementptr inbounds nuw %struct.MPVEncContext, ptr %36, i32 0, i32 55
  %38 = load ptr, ptr %37, align 8, !tbaa !83
  %39 = load i32, ptr %5, align 4, !tbaa !13
  %40 = sext i32 %39 to i64
  %41 = getelementptr inbounds [64 x i32], ptr %38, i64 %40
  %42 = load i32, ptr %6, align 4, !tbaa !13
  %43 = sext i32 %42 to i64
  %44 = getelementptr inbounds [64 x i32], ptr %41, i64 0, i64 %43
  %45 = load i32, ptr %44, align 4, !tbaa !13
  %46 = add nsw i32 %45, %35
  store i32 %46, ptr %44, align 4, !tbaa !13
  %47 = load ptr, ptr %3, align 8, !tbaa !4
  %48 = getelementptr inbounds nuw %struct.MPVEncContext, ptr %47, i32 0, i32 57
  %49 = load ptr, ptr %48, align 8, !tbaa !100
  %50 = load i32, ptr %5, align 4, !tbaa !13
  %51 = sext i32 %50 to i64
  %52 = getelementptr inbounds [64 x i16], ptr %49, i64 %51
  %53 = load i32, ptr %6, align 4, !tbaa !13
  %54 = sext i32 %53 to i64
  %55 = getelementptr inbounds [64 x i16], ptr %52, i64 0, i64 %54
  %56 = load i16, ptr %55, align 2, !tbaa !54
  %57 = zext i16 %56 to i32
  %58 = load i32, ptr %7, align 4, !tbaa !13
  %59 = sub nsw i32 %58, %57
  store i32 %59, ptr %7, align 4, !tbaa !13
  %60 = load i32, ptr %7, align 4, !tbaa !13
  %61 = icmp slt i32 %60, 0
  br i1 %61, label %62, label %63

62:                                               ; preds = %34
  store i32 0, ptr %7, align 4, !tbaa !13
  br label %63

63:                                               ; preds = %62, %34
  br label %94

64:                                               ; preds = %31
  %65 = load i32, ptr %7, align 4, !tbaa !13
  %66 = load ptr, ptr %3, align 8, !tbaa !4
  %67 = getelementptr inbounds nuw %struct.MPVEncContext, ptr %66, i32 0, i32 55
  %68 = load ptr, ptr %67, align 8, !tbaa !83
  %69 = load i32, ptr %5, align 4, !tbaa !13
  %70 = sext i32 %69 to i64
  %71 = getelementptr inbounds [64 x i32], ptr %68, i64 %70
  %72 = load i32, ptr %6, align 4, !tbaa !13
  %73 = sext i32 %72 to i64
  %74 = getelementptr inbounds [64 x i32], ptr %71, i64 0, i64 %73
  %75 = load i32, ptr %74, align 4, !tbaa !13
  %76 = sub nsw i32 %75, %65
  store i32 %76, ptr %74, align 4, !tbaa !13
  %77 = load ptr, ptr %3, align 8, !tbaa !4
  %78 = getelementptr inbounds nuw %struct.MPVEncContext, ptr %77, i32 0, i32 57
  %79 = load ptr, ptr %78, align 8, !tbaa !100
  %80 = load i32, ptr %5, align 4, !tbaa !13
  %81 = sext i32 %80 to i64
  %82 = getelementptr inbounds [64 x i16], ptr %79, i64 %81
  %83 = load i32, ptr %6, align 4, !tbaa !13
  %84 = sext i32 %83 to i64
  %85 = getelementptr inbounds [64 x i16], ptr %82, i64 0, i64 %84
  %86 = load i16, ptr %85, align 2, !tbaa !54
  %87 = zext i16 %86 to i32
  %88 = load i32, ptr %7, align 4, !tbaa !13
  %89 = add nsw i32 %88, %87
  store i32 %89, ptr %7, align 4, !tbaa !13
  %90 = load i32, ptr %7, align 4, !tbaa !13
  %91 = icmp sgt i32 %90, 0
  br i1 %91, label %92, label %93

92:                                               ; preds = %64
  store i32 0, ptr %7, align 4, !tbaa !13
  br label %93

93:                                               ; preds = %92, %64
  br label %94

94:                                               ; preds = %93, %63
  %95 = load i32, ptr %7, align 4, !tbaa !13
  %96 = trunc i32 %95 to i16
  %97 = load ptr, ptr %4, align 8, !tbaa !11
  %98 = load i32, ptr %6, align 4, !tbaa !13
  %99 = sext i32 %98 to i64
  %100 = getelementptr inbounds i16, ptr %97, i64 %99
  store i16 %96, ptr %100, align 2, !tbaa !54
  br label %101

101:                                              ; preds = %94, %22
  call void @llvm.lifetime.end.p0(i64 4, ptr %7) #14
  br label %102

102:                                              ; preds = %101
  %103 = load i32, ptr %6, align 4, !tbaa !13
  %104 = add nsw i32 %103, 1
  store i32 %104, ptr %6, align 4, !tbaa !13
  br label %19, !llvm.loop !101

105:                                              ; preds = %19
  call void @llvm.lifetime.end.p0(i64 4, ptr %6) #14
  call void @llvm.lifetime.end.p0(i64 4, ptr %5) #14
  ret void
}