; Function Attrs: nofree norecurse nosync nounwind memory(readwrite, inaccessiblemem: none) uwtable
define internal void @denoise_dct_c(ptr noundef captures(none) %0, ptr noundef captures(none) %1) #5 {
  %3 = getelementptr inbounds nuw i8, ptr %0, i64 3360
  %4 = load i32, ptr %3, align 8, !tbaa !79
  %5 = getelementptr inbounds nuw i8, ptr %0, i64 6720
  %6 = sext i32 %4 to i64
  %7 = getelementptr inbounds [2 x i32], ptr %5, i64 0, i64 %6
  %8 = load i32, ptr %7, align 4, !tbaa !49
  %9 = add nsw i32 %8, 1
  store i32 %9, ptr %7, align 4, !tbaa !49
  %10 = getelementptr inbounds nuw i8, ptr %0, i64 6712
  %11 = getelementptr inbounds nuw i8, ptr %0, i64 6728
  br label %12

12:                                               ; preds = %2, %37
  %indvars.iv = phi i64 [ 0, %2 ], [ %indvars.iv.next, %37 ]
  %13 = getelementptr inbounds nuw i16, ptr %1, i64 %indvars.iv
  %14 = load i16, ptr %13, align 2, !tbaa !52
  %15 = sext i16 %14 to i32
  %.not = icmp eq i16 %14, 0
  br i1 %.not, label %37, label %16

16:                                               ; preds = %12
  %17 = icmp sgt i16 %14, 0
  %18 = load ptr, ptr %10, align 8, !tbaa !78
  %19 = getelementptr inbounds [64 x i32], ptr %18, i64 %6, i64 %indvars.iv
  %20 = load i32, ptr %19, align 4, !tbaa !49
  br i1 %17, label %21, label %28

21:                                               ; preds = %16
  %22 = add nsw i32 %20, %15
  store i32 %22, ptr %19, align 4, !tbaa !49
  %23 = load ptr, ptr %11, align 8, !tbaa !91
  %24 = getelementptr inbounds [64 x i16], ptr %23, i64 %6, i64 %indvars.iv
  %25 = load i16, ptr %24, align 2, !tbaa !52
  %26 = zext i16 %25 to i32
  %27 = sub nsw i32 %15, %26
  %spec.store.select = tail call i32 @llvm.smax.i32(i32 %27, i32 0)
  br label %35

28:                                               ; preds = %16
  %29 = sub nsw i32 %20, %15
  store i32 %29, ptr %19, align 4, !tbaa !49
  %30 = load ptr, ptr %11, align 8, !tbaa !91
  %31 = getelementptr inbounds [64 x i16], ptr %30, i64 %6, i64 %indvars.iv
  %32 = load i16, ptr %31, align 2, !tbaa !52
  %33 = zext i16 %32 to i32
  %34 = add nsw i32 %33, %15
  %spec.store.select1 = tail call i32 @llvm.smin.i32(i32 %34, i32 0)
  br label %35

35:                                               ; preds = %28, %21
  %.0 = phi i32 [ %spec.store.select, %21 ], [ %spec.store.select1, %28 ]
  %36 = trunc nsw i32 %.0 to i16
  store i16 %36, ptr %13, align 2, !tbaa !52
  br label %37

37:                                               ; preds = %35, %12
  %indvars.iv.next = add nuw nsw i64 %indvars.iv, 1
  %exitcond.not = icmp eq i64 %indvars.iv.next, 64
  br i1 %exitcond.not, label %38, label %12, !llvm.loop !92

38:                                               ; preds = %37
  ret void
}